target datalayout = "e-m:e-p270:32:32-p271:32:32-p272:64:64-i64:64-i128:128-f80:128-n8:16:32:64-S128"
target triple = "x86_64-pc-linux-gnu"

%struct._object = type { %union.anon, ptr }
%union.anon = type { i64 }
%struct.PyMutex = type { i8 }
%struct._xid_lookup_state = type { %struct._PyXIData_registry_t }
%struct._PyXIData_registry_t = type { i32, i32, %struct.PyMutex, ptr }
%struct.llist_node = type { ptr, ptr }
%struct.PyWideStringList = type { i64, ptr }
%struct._pending_calls = type { ptr, %struct.PyMutex, i32, i32, i32, [300 x %struct._pending_call], i32, i32 }
%struct._pending_call = type { ptr, ptr, i32 }
%struct._stoptheworld_state = type { %struct.PyMutex, i8, i8, i8, %struct.PyEvent, i64, ptr }
%struct.PyEvent = type { i8 }
%struct.PyGC_Head = type { i64, i64 }
%struct._is = type { %struct._ceval_state, ptr, i64, i64, i32, i64, i32, i32, i32, i64, %struct.pythreads, ptr, ptr, i64, %struct._gc_runtime_state, ptr, ptr, %struct._import_state, %struct._gil_runtime_state, %struct.codecs_state, %struct.PyConfig, i64, ptr, ptr, ptr, ptr, [8 x ptr], i8, i64, [255 x ptr], %struct._PyXI_state_t, ptr, ptr, ptr, %struct._warnings_runtime_state, %struct.atexit_state, %struct._stoptheworld_state, %struct._qsbr_shared, ptr, ptr, [8 x ptr], [8 x ptr], [8 x ptr], i8, i8, %struct._py_object_state, %struct._Py_unicode_state, %struct._Py_long_state, %struct._dtoa_state, %struct._py_func_state, %struct._py_code_state, %struct._Py_dict_state, %struct._Py_exc_state, %struct._Py_mem_interp_free_queue, %struct.ast_state, %struct.types_state, %struct.callable_cache, i8, ptr, i64, %struct._rare_events, ptr, %struct._Py_GlobalMonitors, i8, i8, i64, i64, [8 x [19 x ptr]], [8 x ptr], [8 x i64], %struct._Py_interp_cached_objects, %struct._Py_interp_static_objects, i64, %struct._PyThreadStateImpl }
%struct._ceval_state = type { i64, i32, ptr, i32, %struct._pending_calls }
%struct.pythreads = type { i64, ptr, ptr, ptr, i64, i64 }
%struct._gc_runtime_state = type { ptr, i32, i32, i32, %struct.gc_generation, [2 x %struct.gc_generation], %struct.gc_generation, [3 x %struct.gc_generation_stats], i32, ptr, ptr, i64, i64, i32, i32 }
%struct.gc_generation = type { %struct.PyGC_Head, i32, i32 }
%struct.gc_generation_stats = type { i64, i64, i64 }
%struct._import_state = type { ptr, ptr, ptr, i32, i32, i32, ptr, %struct._PyRecursiveMutex, %struct.anon.0 }
%struct._PyRecursiveMutex = type { %struct.PyMutex, i64, i64 }
%struct.anon.0 = type { i32, i64, i32 }
%struct._gil_runtime_state = type { i64, ptr, i32, i64, %union.pthread_cond_t, %union.pthread_mutex_t, %union.pthread_cond_t, %union.pthread_mutex_t }
%union.pthread_cond_t = type { %struct.__pthread_cond_s }
%struct.__pthread_cond_s = type { %union.__atomic_wide_counter, %union.__atomic_wide_counter, [2 x i32], [2 x i32], i32, i32, [2 x i32] }
%union.__atomic_wide_counter = type { i64 }
%union.pthread_mutex_t = type { %struct.__pthread_mutex_s }
%struct.__pthread_mutex_s = type { i32, i32, i32, i32, i32, i16, i16, %struct.__pthread_internal_list }
%struct.__pthread_internal_list = type { ptr, ptr }
%struct.codecs_state = type { ptr, ptr, ptr, i32 }
%struct.PyConfig = type { i32, i32, i32, i32, i32, i32, i64, i32, i32, i32, i32, i32, i32, i32, ptr, i32, ptr, ptr, ptr, i32, %struct.PyWideStringList, %struct.PyWideStringList, %struct.PyWideStringList, %struct.PyWideStringList, i32, i32, i32, i32, i32, i32, i32, i32, i32, i32, i32, i32, i32, ptr, ptr, ptr, i32, i32, i32, i32, i32, ptr, ptr, ptr, ptr, i32, %struct.PyWideStringList, ptr, ptr, ptr, ptr, ptr, ptr, ptr, i32, ptr, ptr, ptr, ptr, i32, i32, i32 }
%struct._PyXI_state_t = type { %struct._xid_lookup_state, %struct.xi_exceptions }
%struct.xi_exceptions = type { ptr, ptr, ptr }
%struct._warnings_runtime_state = type { ptr, ptr, ptr, %struct._PyRecursiveMutex, i64 }
%struct.atexit_state = type { ptr, ptr }
%struct._qsbr_shared = type { i64, i64, ptr, i64, %struct.PyMutex, ptr }
%struct._py_object_state = type { %struct._Py_freelists, i32 }
%struct._Py_freelists = type { %struct._Py_freelist, %struct._Py_freelist, [20 x %struct._Py_freelist], %struct._Py_freelist, %struct._Py_freelist, %struct._Py_freelist, %struct._Py_freelist, %struct._Py_freelist, %struct._Py_freelist, %struct._Py_freelist, %struct._Py_freelist, %struct._Py_freelist, %struct._Py_freelist, %struct._Py_freelist, %struct._Py_freelist, %struct._Py_freelist }
%struct._Py_freelist = type { ptr, i64 }
%struct._Py_unicode_state = type { %struct._Py_unicode_fs_codec, ptr, %struct._Py_unicode_ids }
%struct._Py_unicode_fs_codec = type { ptr, i32, ptr, i32 }
%struct._Py_unicode_ids = type { i64, ptr }
%struct._Py_long_state = type { i32 }
%struct._dtoa_state = type { [8 x ptr], [8 x ptr], [288 x double], ptr }
%struct._py_func_state = type { i32, [4096 x %struct._func_version_cache_item] }
%struct._func_version_cache_item = type { ptr, ptr }
%struct._py_code_state = type { %struct.PyMutex, ptr }
%struct._Py_dict_state = type { i32, [8 x ptr] }
%struct._Py_exc_state = type { ptr, ptr, i32, ptr }
%struct._Py_mem_interp_free_queue = type { i32, %struct.PyMutex, %struct.llist_node }
%struct.ast_state = type { %struct._PyOnceFlag, i32, ptr, ptr, ptr, ptr, ptr, ptr, ptr, ptr, ptr, ptr, ptr, ptr, ptr, ptr, ptr, ptr, ptr, ptr, ptr, ptr, ptr, ptr, ptr, ptr, ptr, ptr, ptr, ptr, ptr, ptr, ptr, ptr, ptr, ptr, ptr, ptr, ptr, ptr, ptr, ptr, ptr, ptr, ptr, ptr, ptr, ptr, ptr, ptr, ptr, ptr, ptr, ptr, ptr, ptr, ptr, ptr, ptr, ptr, ptr, ptr, ptr, ptr, ptr, ptr, ptr, ptr, ptr, ptr, ptr, ptr, ptr, ptr, ptr, ptr, ptr, ptr, ptr, ptr, ptr, ptr, ptr, ptr, ptr, ptr, ptr, ptr, ptr, ptr, ptr, ptr, ptr, ptr, ptr, ptr, ptr, ptr, ptr, ptr, ptr, ptr, ptr, ptr, ptr, ptr, ptr, ptr, ptr, ptr, ptr, ptr, ptr, ptr, ptr, ptr, ptr, ptr, ptr, ptr, ptr, ptr, ptr, ptr, ptr, ptr, ptr, ptr, ptr, ptr, ptr, ptr, ptr, ptr, ptr, ptr, ptr, ptr, ptr, ptr, ptr, ptr, ptr, ptr, ptr, ptr, ptr, ptr, ptr, ptr, ptr, ptr, ptr, ptr, ptr, ptr, ptr, ptr, ptr, ptr, ptr, ptr, ptr, ptr, ptr, ptr, ptr, ptr, ptr, ptr, ptr, ptr, ptr, ptr, ptr, ptr, ptr, ptr, ptr, ptr, ptr, ptr, ptr, ptr, ptr, ptr, ptr, ptr, ptr, ptr, ptr, ptr, ptr, ptr, ptr, ptr, ptr, ptr, ptr, ptr, ptr, ptr, ptr, ptr, ptr, ptr, ptr, ptr, ptr, ptr, ptr, ptr, ptr, ptr, ptr, ptr, ptr, ptr, ptr, ptr, ptr, ptr, ptr, ptr, ptr, ptr, ptr, ptr, ptr, ptr, ptr, ptr, ptr, ptr, ptr, ptr, ptr, ptr, ptr, ptr, ptr, ptr, ptr, ptr, ptr }
%struct._PyOnceFlag = type { i8 }
%struct.types_state = type { i32, %struct.type_cache, %struct.anon.2, %struct.anon.3, %struct.PyMutex, [4096 x ptr] }
%struct.type_cache = type { [4096 x %struct.type_cache_entry] }
%struct.type_cache_entry = type { i32, ptr, ptr }
%struct.anon.2 = type { i64, [200 x %struct.managed_static_type_state] }
%struct.managed_static_type_state = type { ptr, i32, i32, i32, ptr, ptr, ptr }
%struct.anon.3 = type { i64, i64, [10 x %struct.managed_static_type_state] }
%struct.callable_cache = type { ptr, ptr, ptr, ptr }
%struct._rare_events = type { i8, i8, i8, i8, i8 }
%struct._Py_GlobalMonitors = type { [16 x i8] }
%struct._Py_interp_cached_objects = type { ptr, ptr, ptr, [10 x ptr], ptr, ptr, ptr, ptr, ptr, ptr, ptr }
%struct._Py_interp_static_objects = type { %struct.anon.4 }
%struct.anon.4 = type { i32, %struct.PyGC_Head, %struct.PyHamtObject, %struct.PyBaseExceptionObject }
%struct.PyHamtObject = type { %struct._object, ptr, ptr, i64 }
%struct.PyBaseExceptionObject = type { %struct._object, ptr, ptr, ptr, ptr, ptr, ptr, i8 }
%struct._PyThreadStateImpl = type { %struct._ts, ptr, ptr, ptr, %struct.llist_node }
%struct._ts = type { ptr, ptr, ptr, i64, %struct.anon, i32, i32, i32, i32, i32, i32, i32, i32, ptr, ptr, ptr, ptr, ptr, ptr, ptr, ptr, i32, ptr, i64, i64, ptr, i64, i32, ptr, ptr, ptr, i64, i64, ptr, ptr, ptr, %struct._err_stackitem, ptr, i64, ptr, ptr }
%struct.anon = type { i32 }
%struct._err_stackitem = type { ptr, ptr }
%struct.anon.5 = type { i32, i32 }

@PyExc_ValueError = external global ptr, align 8
@.str.44 = private unnamed_addr constant [43 x i8] c"maxdigits must be >= %d or 0 for unlimited\00", align 1
@_Py_tss_tstate = external thread_local global ptr, align 8

; Function Attrs: alwaysinline nounwind uwtable
define internal i32 @_Py_IsImmortal(ptr noundef %0) #5 {
  %2 = alloca ptr, align 8
  store ptr %0, ptr %2, align 8, !tbaa !9
  %3 = load ptr, ptr %2, align 8, !tbaa !9
  %4 = getelementptr inbounds nuw %struct._object, ptr %3, i32 0, i32 0
  %5 = getelementptr inbounds nuw %struct.anon.5, ptr %4, i32 0, i32 0
  %6 = load i32, ptr %5, align 8, !tbaa !102
  %7 = icmp slt i32 %6, 0
  %8 = zext i1 %7 to i32
  ret i32 %8
}

; Function Attrs: inlinehint nounwind uwtable
define internal ptr @_PyThreadState_GET() #3 {
  %1 = call align 8 ptr @llvm.threadlocal.address.p0(ptr align 8 @_Py_tss_tstate)
  %2 = load ptr, ptr %1, align 8, !tbaa !4
  ret ptr %2
}

; Function Attrs: alwaysinline nounwind uwtable
define internal void @Py_DECREF(ptr noundef %0) #5 {
  %2 = alloca ptr, align 8
  store ptr %0, ptr %2, align 8, !tbaa !9
  %3 = load ptr, ptr %2, align 8, !tbaa !9
  %4 = call i32 @_Py_IsImmortal(ptr noundef %3)
  %5 = icmp ne i32 %4, 0
  br i1 %5, label %6, label %7

6:                                                ; preds = %1
  br label %16

7:                                                ; preds = %1
  %8 = load ptr, ptr %2, align 8, !tbaa !9
  %9 = getelementptr inbounds nuw %struct._object, ptr %8, i32 0, i32 0
  %10 = getelementptr inbounds nuw %struct.anon.5, ptr %9, i32 0, i32 0
  %11 = load i32, ptr %10, align 8, !tbaa !102
  %12 = add i32 %11, -1
  store i32 %12, ptr %10, align 8, !tbaa !102
  %13 = icmp eq i32 %12, 0
  br i1 %13, label %14, label %16

14:                                               ; preds = %7
  %15 = load ptr, ptr %2, align 8, !tbaa !9
  call void @_Py_Dealloc(ptr noundef %15)
  br label %16

16:                                               ; preds = %6, %14, %7
  ret void
}

; Function Attrs: inlinehint nounwind uwtable
define internal ptr @_PyInterpreterState_GET() #3 {
  %1 = alloca ptr, align 8
  call void @llvm.lifetime.start.p0(i64 8, ptr %1) #12
  %2 = call ptr @_PyThreadState_GET()
  store ptr %2, ptr %1, align 8, !tbaa !4
  %3 = load ptr, ptr %1, align 8, !tbaa !4
  %4 = getelementptr inbounds nuw %struct._ts, ptr %3, i32 0, i32 2
  %5 = load ptr, ptr %4, align 8, !tbaa !11
  call void @llvm.lifetime.end.p0(i64 8, ptr %1) #12
  ret ptr %5
}

; Function Attrs: nounwind uwtable
define internal i32 @_PySys_SetFlagInt(i64 noundef %0, i32 noundef %1) #0 {
  %3 = alloca i32, align 4
  %4 = alloca i64, align 8
  %5 = alloca i32, align 4
  %6 = alloca ptr, align 8
  %7 = alloca i32, align 4
  %8 = alloca i32, align 4
  store i64 %0, ptr %4, align 8, !tbaa !204
  store i32 %1, ptr %5, align 4, !tbaa !97
  call void @llvm.lifetime.start.p0(i64 8, ptr %6) #12
  %9 = load i32, ptr %5, align 4, !tbaa !97
  %10 = sext i32 %9 to i64
  %11 = call ptr @PyLong_FromLong(i64 noundef %10)
  store ptr %11, ptr %6, align 8, !tbaa !9
  %12 = load ptr, ptr %6, align 8, !tbaa !9
  %13 = icmp eq ptr %12, null
  br i1 %13, label %14, label %15

14:                                               ; preds = %2
  store i32 -1, ptr %3, align 4
  store i32 1, ptr %7, align 4
  br label %21

15:                                               ; preds = %2
  call void @llvm.lifetime.start.p0(i64 4, ptr %8) #12
  %16 = load i64, ptr %4, align 8, !tbaa !204
  %17 = load ptr, ptr %6, align 8, !tbaa !9
  %18 = call i32 @_PySys_SetFlagObj(i64 noundef %16, ptr noundef %17)
  store i32 %18, ptr %8, align 4, !tbaa !97
  %19 = load ptr, ptr %6, align 8, !tbaa !9
  call void @Py_DECREF(ptr noundef %19)
  %20 = load i32, ptr %8, align 4, !tbaa !97
  store i32 %20, ptr %3, align 4
  store i32 1, ptr %7, align 4
  call void @llvm.lifetime.end.p0(i64 4, ptr %8) #12
  br label %21

21:                                               ; preds = %15, %14
  call void @llvm.lifetime.end.p0(i64 8, ptr %6) #12
  %22 = load i32, ptr %3, align 4
  ret i32 %22
}

; Function Attrs: nounwind uwtable
define hidden i32 @_PySys_SetIntMaxStrDigits(i32 noundef %0) #0 {
  %2 = alloca i32, align 4
  %3 = alloca i32, align 4
  %4 = alloca i64, align 8
  %5 = alloca i32, align 4
  %6 = alloca ptr, align 8
  store i32 %0, ptr %3, align 4, !tbaa !97
  %7 = load i32, ptr %3, align 4, !tbaa !97
  %8 = icmp ne i32 %7, 0
  br i1 %8, label %9, label %15

9:                                                ; preds = %1
  %10 = load i32, ptr %3, align 4, !tbaa !97
  %11 = icmp slt i32 %10, 640
  br i1 %11, label %12, label %15

12:                                               ; preds = %9
  %13 = load ptr, ptr @PyExc_ValueError, align 8, !tbaa !9
  %14 = call ptr (ptr, ptr, ...) @PyErr_Format(ptr noundef %13, ptr noundef @.str.44, i32 noundef 640)
  store i32 -1, ptr %2, align 4
  br label %31

15:                                               ; preds = %9, %1
  call void @llvm.lifetime.start.p0(i64 8, ptr %4) #12
  store i64 17, ptr %4, align 8, !tbaa !204
  %16 = load i32, ptr %3, align 4, !tbaa !97
  %17 = call i32 @_PySys_SetFlagInt(i64 noundef 17, i32 noundef %16)
  %18 = icmp slt i32 %17, 0
  br i1 %18, label %19, label %20

19:                                               ; preds = %15
  store i32 -1, ptr %2, align 4
  store i32 1, ptr %5, align 4
  br label %30

20:                                               ; preds = %15
  call void @llvm.lifetime.start.p0(i64 8, ptr %6) #12
  %21 = call ptr @_PyInterpreterState_GET()
  store ptr %21, ptr %6, align 8, !tbaa !95
  %22 = load i32, ptr %3, align 4, !tbaa !97
  %23 = load ptr, ptr %6, align 8, !tbaa !95
  %24 = getelementptr inbounds nuw %struct._is, ptr %23, i32 0, i32 47
  %25 = getelementptr inbounds nuw %struct._Py_long_state, ptr %24, i32 0, i32 0
  store i32 %22, ptr %25, align 8, !tbaa !273
  %26 = load i32, ptr %3, align 4, !tbaa !97
  %27 = load ptr, ptr %6, align 8, !tbaa !95
  %28 = getelementptr inbounds nuw %struct._is, ptr %27, i32 0, i32 20
  %29 = getelementptr inbounds nuw %struct.PyConfig, ptr %28, i32 0, i32 42
  store i32 %26, ptr %29, align 8, !tbaa !274
  store i32 0, ptr %2, align 4
  store i32 1, ptr %5, align 4
  call void @llvm.lifetime.end.p0(i64 8, ptr %6) #12
  br label %30

30:                                               ; preds = %20, %19
  call void @llvm.lifetime.end.p0(i64 8, ptr %4) #12
  br label %31

31:                                               ; preds = %30, %12
  %32 = load i32, ptr %2, align 4
  ret i32 %32
}