; Function Attrs: nounwind uwtable
define hidden range(i32 -1, 1) i32 @_PySys_SetIntMaxStrDigits(i32 noundef %0) local_unnamed_addr #0 {
  %2 = icmp ne i32 %0, 0
  %3 = icmp slt i32 %0, 640
  %or.cond = and i1 %2, %3
  br i1 %or.cond, label %4, label %7

4:                                                ; preds = %1
  %5 = load ptr, ptr @PyExc_ValueError, align 8, !tbaa !93
  %6 = tail call ptr (ptr, ptr, ...) @PyErr_Format(ptr noundef %5, ptr noundef nonnull @.str.44, i32 noundef 640) #15
  br label %_PySys_SetFlagInt.exit.thread

7:                                                ; preds = %1
  %8 = zext nneg i32 %0 to i64
  %9 = tail call ptr @PyLong_FromLong(i64 noundef %8) #15
  %10 = icmp eq ptr %9, null
  br i1 %10, label %_PySys_SetFlagInt.exit.thread, label %11

11:                                               ; preds = %7
  %12 = tail call i32 @_PySys_SetFlagObj(i64 noundef 17, ptr noundef nonnull %9)
  %13 = load i32, ptr %9, align 8, !tbaa !94
  %.not.i.i = icmp sgt i32 %13, -1
  br i1 %.not.i.i, label %14, label %_PySys_SetFlagInt.exit

14:                                               ; preds = %11
  %15 = add nsw i32 %13, -1
  store i32 %15, ptr %9, align 8, !tbaa !94
  %16 = icmp eq i32 %15, 0
  br i1 %16, label %17, label %_PySys_SetFlagInt.exit

17:                                               ; preds = %14
  tail call void @_Py_Dealloc(ptr noundef nonnull %9) #15
  br label %_PySys_SetFlagInt.exit

_PySys_SetFlagInt.exit:                           ; preds = %11, %14, %17
  %18 = icmp slt i32 %12, 0
  br i1 %18, label %_PySys_SetFlagInt.exit.thread, label %19

19:                                               ; preds = %_PySys_SetFlagInt.exit
  %20 = tail call align 8 ptr @llvm.threadlocal.address.p0(ptr align 8 @_Py_tss_tstate)
  %21 = load ptr, ptr %20, align 8, !tbaa !92
  %22 = getelementptr inbounds nuw i8, ptr %21, i64 16
  %23 = load ptr, ptr %22, align 8, !tbaa !4
  %24 = getelementptr inbounds nuw i8, ptr %23, i64 11656
  store i32 %0, ptr %24, align 8, !tbaa !265
  %25 = getelementptr inbounds nuw i8, ptr %23, i64 8256
  store i32 %0, ptr %25, align 8, !tbaa !266
  br label %_PySys_SetFlagInt.exit.thread

_PySys_SetFlagInt.exit.thread:                    ; preds = %7, %19, %_PySys_SetFlagInt.exit, %4
  %.0 = phi i32 [ -1, %4 ], [ 0, %19 ], [ -1, %_PySys_SetFlagInt.exit ], [ -1, %7 ]
  ret i32 %.0
}